; ModuleID = '46/1270.c'
source_filename = "46/1270.c"
target datalayout = "e-m:e-p270:32:32-p271:32:32-p272:64:64-i64:64-f80:128-n8:16:32:64-S128"
target triple = "x86_64-pc-linux-gnu"

@.str = private unnamed_addr constant [6 x i8] c"%d %d\00", align 1
@.str.1 = private unnamed_addr constant [3 x i8] c"%d\00", align 1
@.str.2 = private unnamed_addr constant [4 x i8] c"%d\0A\00", align 1

; Function Attrs: noinline nounwind uwtable
define dso_local i32 @main() #0 {
  %1 = alloca i32, align 4
  %2 = alloca i32, align 4
  %3 = alloca i32, align 4
  %4 = alloca [100 x [100 x i32]], align 16
  %5 = alloca i32, align 4
  %6 = alloca i32, align 4
  %7 = alloca i32, align 4
  %8 = alloca i32, align 4
  %9 = alloca i32, align 4
  %10 = alloca i32, align 4
  %11 = alloca i32, align 4
  %12 = alloca i32, align 4
  %13 = alloca i32, align 4
  %14 = alloca i32, align 4
  store i32 0, i32* %1, align 4
  store i32 0, i32* %7, align 4
  store i32 0, i32* %8, align 4
  store i32 0, i32* %9, align 4
  store i32 0, i32* %10, align 4
  %15 = call i32 (i8*, ...) @__isoc99_scanf(i8* getelementptr inbounds ([6 x i8], [6 x i8]* @.str, i64 0, i64 0), i32* %2, i32* %3)
  store i32 0, i32* %5, align 4
  br label %16

16:                                               ; preds = %37, %0
  %17 = load i32, i32* %5, align 4
  %18 = load i32, i32* %2, align 4
  %19 = icmp slt i32 %17, %18
  br i1 %19, label %20, label %40

20:                                               ; preds = %16
  store i32 0, i32* %6, align 4
  br label %21

21:                                               ; preds = %33, %20
  %22 = load i32, i32* %6, align 4
  %23 = load i32, i32* %3, align 4
  %24 = icmp slt i32 %22, %23
  br i1 %24, label %25, label %36

25:                                               ; preds = %21
  %26 = load i32, i32* %5, align 4
  %27 = sext i32 %26 to i64
  %28 = getelementptr inbounds [100 x [100 x i32]], [100 x [100 x i32]]* %4, i64 0, i64 %27
  %29 = load i32, i32* %6, align 4
  %30 = sext i32 %29 to i64
  %31 = getelementptr inbounds [100 x i32], [100 x i32]* %28, i64 0, i64 %30
  %32 = call i32 (i8*, ...) @__isoc99_scanf(i8* getelementptr inbounds ([3 x i8], [3 x i8]* @.str.1, i64 0, i64 0), i32* %31)
  br label %33

33:                                               ; preds = %25
  %34 = load i32, i32* %6, align 4
  %35 = add nsw i32 %34, 1
  store i32 %35, i32* %6, align 4
  br label %21

36:                                               ; preds = %21
  br label %37

37:                                               ; preds = %36
  %38 = load i32, i32* %5, align 4
  %39 = add nsw i32 %38, 1
  store i32 %39, i32* %5, align 4
  br label %16

40:                                               ; preds = %16
  br label %41

41:                                               ; preds = %40, %164
  store i32 0, i32* %11, align 4
  store i32 0, i32* %12, align 4
  store i32 0, i32* %13, align 4
  store i32 0, i32* %14, align 4
  %42 = load i32, i32* %7, align 4
  %43 = add nsw i32 %42, 1
  store i32 %43, i32* %5, align 4
  br label %44

44:                                               ; preds = %62, %41
  %45 = load i32, i32* %5, align 4
  %46 = load i32, i32* %3, align 4
  %47 = load i32, i32* %9, align 4
  %48 = sub nsw i32 %46, %47
  %49 = icmp sle i32 %45, %48
  br i1 %49, label %50, label %65

50:                                               ; preds = %44
  %51 = load i32, i32* %8, align 4
  %52 = add nsw i32 %51, 1
  %53 = sub nsw i32 %52, 1
  %54 = sext i32 %53 to i64
  %55 = getelementptr inbounds [100 x [100 x i32]], [100 x [100 x i32]]* %4, i64 0, i64 %54
  %56 = load i32, i32* %5, align 4
  %57 = sub nsw i32 %56, 1
  %58 = sext i32 %57 to i64
  %59 = getelementptr inbounds [100 x i32], [100 x i32]* %55, i64 0, i64 %58
  %60 = load i32, i32* %59, align 4
  %61 = call i32 (i8*, ...) @printf(i8* getelementptr inbounds ([4 x i8], [4 x i8]* @.str.2, i64 0, i64 0), i32 %60)
  store i32 1, i32* %11, align 4
  br label %62

62:                                               ; preds = %50
  %63 = load i32, i32* %5, align 4
  %64 = add nsw i32 %63, 1
  store i32 %64, i32* %5, align 4
  br label %44

65:                                               ; preds = %44
  %66 = load i32, i32* %11, align 4
  %67 = icmp eq i32 %66, 0
  br i1 %67, label %68, label %69

68:                                               ; preds = %65
  br label %165

69:                                               ; preds = %65
  %70 = load i32, i32* %9, align 4
  %71 = add nsw i32 %70, 1
  store i32 %71, i32* %9, align 4
  %72 = load i32, i32* %8, align 4
  %73 = add nsw i32 %72, 2
  store i32 %73, i32* %5, align 4
  br label %74

74:                                               ; preds = %94, %69
  %75 = load i32, i32* %5, align 4
  %76 = load i32, i32* %2, align 4
  %77 = load i32, i32* %10, align 4
  %78 = sub nsw i32 %76, %77
  %79 = icmp sle i32 %75, %78
  br i1 %79, label %80, label %97

80:                                               ; preds = %74
  %81 = load i32, i32* %5, align 4
  %82 = sub nsw i32 %81, 1
  %83 = sext i32 %82 to i64
  %84 = getelementptr inbounds [100 x [100 x i32]], [100 x [100 x i32]]* %4, i64 0, i64 %83
  %85 = load i32, i32* %3, align 4
  %86 = load i32, i32* %9, align 4
  %87 = sub nsw i32 %86, 1
  %88 = sub nsw i32 %85, %87
  %89 = sub nsw i32 %88, 1
  %90 = sext i32 %89 to i64
  %91 = getelementptr inbounds [100 x i32], [100 x i32]* %84, i64 0, i64 %90
  %92 = load i32, i32* %91, align 4
  %93 = call i32 (i8*, ...) @printf(i8* getelementptr inbounds ([4 x i8], [4 x i8]* @.str.2, i64 0, i64 0), i32 %92)
  store i32 1, i32* %12, align 4
  br label %94

94:                                               ; preds = %80
  %95 = load i32, i32* %5, align 4
  %96 = add nsw i32 %95, 1
  store i32 %96, i32* %5, align 4
  br label %74

97:                                               ; preds = %74
  %98 = load i32, i32* %12, align 4
  %99 = icmp eq i32 %98, 0
  br i1 %99, label %100, label %101

100:                                              ; preds = %97
  br label %165

101:                                              ; preds = %97
  %102 = load i32, i32* %10, align 4
  %103 = add nsw i32 %102, 1
  store i32 %103, i32* %10, align 4
  %104 = load i32, i32* %3, align 4
  %105 = load i32, i32* %9, align 4
  %106 = sub nsw i32 %104, %105
  store i32 %106, i32* %5, align 4
  br label %107

107:                                              ; preds = %126, %101
  %108 = load i32, i32* %5, align 4
  %109 = load i32, i32* %7, align 4
  %110 = add nsw i32 %109, 1
  %111 = icmp sge i32 %108, %110
  br i1 %111, label %112, label %129

112:                                              ; preds = %107
  %113 = load i32, i32* %2, align 4
  %114 = load i32, i32* %10, align 4
  %115 = sub nsw i32 %114, 1
  %116 = sub nsw i32 %113, %115
  %117 = sub nsw i32 %116, 1
  %118 = sext i32 %117 to i64
  %119 = getelementptr inbounds [100 x [100 x i32]], [100 x [100 x i32]]* %4, i64 0, i64 %118
  %120 = load i32, i32* %5, align 4
  %121 = sub nsw i32 %120, 1
  %122 = sext i32 %121 to i64
  %123 = getelementptr inbounds [100 x i32], [100 x i32]* %119, i64 0, i64 %122
  %124 = load i32, i32* %123, align 4
  %125 = call i32 (i8*, ...) @printf(i8* getelementptr inbounds ([4 x i8], [4 x i8]* @.str.2, i64 0, i64 0), i32 %124)
  store i32 1, i32* %13, align 4
  br label %126

126:                                              ; preds = %112
  %127 = load i32, i32* %5, align 4
  %128 = add nsw i32 %127, -1
  store i32 %128, i32* %5, align 4
  br label %107

129:                                              ; preds = %107
  %130 = load i32, i32* %13, align 4
  %131 = icmp eq i32 %130, 0
  br i1 %131, label %132, label %133

132:                                              ; preds = %129
  br label %165

133:                                              ; preds = %129
  %134 = load i32, i32* %7, align 4
  %135 = add nsw i32 %134, 1
  store i32 %135, i32* %7, align 4
  %136 = load i32, i32* %2, align 4
  %137 = load i32, i32* %10, align 4
  %138 = sub nsw i32 %136, %137
  store i32 %138, i32* %5, align 4
  br label %139

139:                                              ; preds = %155, %133
  %140 = load i32, i32* %5, align 4
  %141 = load i32, i32* %8, align 4
  %142 = add nsw i32 %141, 2
  %143 = icmp sge i32 %140, %142
  br i1 %143, label %144, label %158

144:                                              ; preds = %139
  %145 = load i32, i32* %5, align 4
  %146 = sub nsw i32 %145, 1
  %147 = sext i32 %146 to i64
  %148 = getelementptr inbounds [100 x [100 x i32]], [100 x [100 x i32]]* %4, i64 0, i64 %147
  %149 = load i32, i32* %7, align 4
  %150 = sub nsw i32 %149, 1
  %151 = sext i32 %150 to i64
  %152 = getelementptr inbounds [100 x i32], [100 x i32]* %148, i64 0, i64 %151
  %153 = load i32, i32* %152, align 4
  %154 = call i32 (i8*, ...) @printf(i8* getelementptr inbounds ([4 x i8], [4 x i8]* @.str.2, i64 0, i64 0), i32 %153)
  store i32 1, i32* %14, align 4
  br label %155

155:                                              ; preds = %144
  %156 = load i32, i32* %5, align 4
  %157 = add nsw i32 %156, -1
  store i32 %157, i32* %5, align 4
  br label %139

158:                                              ; preds = %139
  %159 = load i32, i32* %8, align 4
  %160 = add nsw i32 %159, 1
  store i32 %160, i32* %8, align 4
  %161 = load i32, i32* %14, align 4
  %162 = icmp eq i32 %161, 0
  br i1 %162, label %163, label %164

163:                                              ; preds = %158
  br label %165

164:                                              ; preds = %158
  br label %41

165:                                              ; preds = %163, %132, %100, %68
  ret i32 0
}

declare dso_local i32 @__isoc99_scanf(i8*, ...) #1

declare dso_local i32 @printf(i8*, ...) #1


!llvm.module.flags = !{!0}
!llvm.ident = !{!1}

!0 = !{i32 1, !"wchar_size", i32 4}
!1 = !{!"clang version 10.0.0-4ubuntu1 "}
